target datalayout = "e-m:e-p270:32:32-p271:32:32-p272:64:64-i64:64-i128:128-f80:128-n8:16:32:64-S128"
target triple = "x86_64-pc-linux-gnu"

%struct.OnigEncodingTypeST = type { ptr, ptr, i32, i32, ptr, ptr, ptr, ptr, ptr, ptr, ptr, ptr, ptr, ptr, ptr, ptr, ptr, i32, i32 }
%struct.RBasic = type { i64, i64 }
%struct.RString = type { %struct.RBasic, i64, %union.anon }
%union.anon = type { %struct.anon }
%struct.anon = type { ptr, %union.anon.0 }
%union.anon.0 = type { i64 }
%struct.anon.1 = type { [1 x i8] }

; Function Attrs: inlinehint nounwind sspstrong willreturn memory(read) uwtable
define internal i64 @RB_FL_TEST_RAW(i64 noundef %0, i64 noundef %1) #8 {
  %3 = alloca i64, align 8
  %4 = alloca i64, align 8
  store i64 %0, ptr %3, align 8, !tbaa !11
  store i64 %1, ptr %4, align 8, !tbaa !11
  %5 = load i64, ptr %3, align 8, !tbaa !11
  %6 = inttoptr i64 %5 to ptr
  %7 = getelementptr inbounds nuw %struct.RBasic, ptr %6, i32 0, i32 0
  %8 = load i64, ptr %7, align 8, !tbaa !65
  %9 = load i64, ptr %4, align 8, !tbaa !11
  %10 = and i64 %8, %9
  ret i64 %10
}

; Function Attrs: inlinehint nounwind sspstrong willreturn memory(read) uwtable
define internal zeroext i1 @RB_FL_ANY_RAW(i64 noundef %0, i64 noundef %1) #8 {
  %3 = alloca i64, align 8
  %4 = alloca i64, align 8
  store i64 %0, ptr %3, align 8, !tbaa !11
  store i64 %1, ptr %4, align 8, !tbaa !11
  %5 = load i64, ptr %3, align 8, !tbaa !11
  %6 = load i64, ptr %4, align 8, !tbaa !11
  %7 = call i64 @RB_FL_TEST_RAW(i64 noundef %5, i64 noundef %6) #29
  %8 = icmp ne i64 %7, 0
  ret i1 %8
}

; Function Attrs: inlinehint nounwind sspstrong willreturn memory(read, argmem: readwrite) uwtable
define internal void @rbimpl_rstring_getmem(ptr dead_on_unwind noalias writable sret(%struct.RString) align 8 %0, i64 noundef %1) #11 {
  %3 = alloca i64, align 8
  store i64 %1, ptr %3, align 8, !tbaa !11
  %4 = load i64, ptr %3, align 8, !tbaa !11
  %5 = call zeroext i1 @RB_FL_ANY_RAW(i64 noundef %4, i64 noundef 8192) #29
  br i1 %5, label %6, label %9

6:                                                ; preds = %2
  %7 = load i64, ptr %3, align 8, !tbaa !11
  %8 = inttoptr i64 %7 to ptr
  call void @llvm.memcpy.p0.p0.i64(ptr align 8 %0, ptr align 8 %8, i64 40, i1 false), !tbaa.struct !69
  br label %20

9:                                                ; preds = %2
  %10 = load i64, ptr %3, align 8, !tbaa !11
  %11 = call i64 @RSTRING_LEN(i64 noundef %10) #29
  %12 = getelementptr inbounds nuw %struct.RString, ptr %0, i32 0, i32 1
  store i64 %11, ptr %12, align 8, !tbaa !57
  %13 = load i64, ptr %3, align 8, !tbaa !11
  %14 = inttoptr i64 %13 to ptr
  %15 = getelementptr inbounds nuw %struct.RString, ptr %14, i32 0, i32 2
  %16 = getelementptr inbounds nuw %struct.anon.1, ptr %15, i32 0, i32 0
  %17 = getelementptr inbounds [1 x i8], ptr %16, i64 0, i64 0
  %18 = getelementptr inbounds nuw %struct.RString, ptr %0, i32 0, i32 2
  %19 = getelementptr inbounds nuw %struct.anon, ptr %18, i32 0, i32 0
  store ptr %17, ptr %19, align 8, !tbaa !15
  br label %20

20:                                               ; preds = %9, %6
  ret void
}

; Function Attrs: inlinehint nounwind sspstrong uwtable
define internal ptr @RSTRING_PTR(i64 noundef %0) #3 {
  %2 = alloca i64, align 8
  %3 = alloca ptr, align 8
  %4 = alloca %struct.RString, align 8
  store i64 %0, ptr %2, align 8, !tbaa !11
  call void @llvm.lifetime.start.p0(i64 8, ptr %3) #28
  %5 = load i64, ptr %2, align 8, !tbaa !11
  call void @rbimpl_rstring_getmem(ptr dead_on_unwind writable sret(%struct.RString) align 8 %4, i64 noundef %5) #33
  %6 = getelementptr inbounds nuw %struct.RString, ptr %4, i32 0, i32 2
  %7 = getelementptr inbounds nuw %struct.anon, ptr %6, i32 0, i32 0
  %8 = load ptr, ptr %7, align 8, !tbaa !15
  store ptr %8, ptr %3, align 8, !tbaa !13
  %9 = load ptr, ptr %3, align 8, !tbaa !13
  call void @llvm.lifetime.end.p0(i64 8, ptr %3) #28
  ret ptr %9
}

; Function Attrs: inlinehint nounwind sspstrong willreturn memory(read) uwtable
define internal i64 @RSTRING_LEN(i64 noundef %0) #8 {
  %2 = alloca i64, align 8
  store i64 %0, ptr %2, align 8, !tbaa !11
  %3 = load i64, ptr %2, align 8, !tbaa !11
  %4 = inttoptr i64 %3 to ptr
  %5 = getelementptr inbounds nuw %struct.RString, ptr %4, i32 0, i32 1
  %6 = load i64, ptr %5, align 8, !tbaa !57
  ret i64 %6
}

; Function Attrs: nounwind sspstrong uwtable
define dso_local i64 @rb_reg_adjust_startpos(i64 noundef %0, i64 noundef %1, i64 noundef %2, i32 noundef %3) #0 {
  %5 = alloca i64, align 8
  %6 = alloca i64, align 8
  %7 = alloca i64, align 8
  %8 = alloca i64, align 8
  %9 = alloca i32, align 4
  %10 = alloca i64, align 8
  %11 = alloca ptr, align 8
  %12 = alloca ptr, align 8
  %13 = alloca ptr, align 8
  %14 = alloca i32, align 4
  store i64 %0, ptr %6, align 8, !tbaa !11
  store i64 %1, ptr %7, align 8, !tbaa !11
  store i64 %2, ptr %8, align 8, !tbaa !11
  store i32 %3, ptr %9, align 4, !tbaa !16
  call void @llvm.lifetime.start.p0(i64 8, ptr %10) #28
  call void @llvm.lifetime.start.p0(i64 8, ptr %11) #28
  call void @llvm.lifetime.start.p0(i64 8, ptr %12) #28
  call void @llvm.lifetime.start.p0(i64 8, ptr %13) #28
  %15 = load i64, ptr %6, align 8, !tbaa !11
  %16 = load i64, ptr %7, align 8, !tbaa !11
  %17 = call ptr @rb_reg_prepare_enc(i64 noundef %15, i64 noundef %16, i32 noundef 0)
  store ptr %17, ptr %11, align 8, !tbaa !20
  %18 = load i32, ptr %9, align 4, !tbaa !16
  %19 = icmp ne i32 %18, 0
  br i1 %19, label %20, label %23

20:                                               ; preds = %4
  %21 = load i64, ptr %8, align 8, !tbaa !11
  %22 = sub i64 0, %21
  store i64 %22, ptr %10, align 8, !tbaa !11
  br label %28

23:                                               ; preds = %4
  %24 = load i64, ptr %7, align 8, !tbaa !11
  %25 = call i64 @RSTRING_LEN(i64 noundef %24) #29
  %26 = load i64, ptr %8, align 8, !tbaa !11
  %27 = sub i64 %25, %26
  store i64 %27, ptr %10, align 8, !tbaa !11
  br label %28

28:                                               ; preds = %23, %20
  %29 = load i64, ptr %8, align 8, !tbaa !11
  %30 = icmp sgt i64 %29, 0
  br i1 %30, label %31, label %77

31:                                               ; preds = %28
  %32 = load ptr, ptr %11, align 8, !tbaa !20
  %33 = getelementptr inbounds nuw %struct.OnigEncodingTypeST, ptr %32, i32 0, i32 2
  %34 = load i32, ptr %33, align 8, !tbaa !74
  %35 = icmp ne i32 %34, 1
  br i1 %35, label %36, label %77

36:                                               ; preds = %31
  %37 = load i64, ptr %8, align 8, !tbaa !11
  %38 = load i64, ptr %7, align 8, !tbaa !11
  %39 = call i64 @RSTRING_LEN(i64 noundef %38) #29
  %40 = icmp slt i64 %37, %39
  br i1 %40, label %41, label %77

41:                                               ; preds = %36
  %42 = load i64, ptr %7, align 8, !tbaa !11
  %43 = call ptr @RSTRING_PTR(i64 noundef %42)
  store ptr %43, ptr %13, align 8, !tbaa !13
  %44 = load i64, ptr %10, align 8, !tbaa !11
  %45 = icmp sgt i64 %44, 0
  br i1 %45, label %46, label %57

46:                                               ; preds = %41
  %47 = load ptr, ptr %11, align 8, !tbaa !20
  %48 = load ptr, ptr %13, align 8, !tbaa !13
  %49 = load ptr, ptr %13, align 8, !tbaa !13
  %50 = load i64, ptr %8, align 8, !tbaa !11
  %51 = getelementptr i8, ptr %49, i64 %50
  %52 = load ptr, ptr %13, align 8, !tbaa !13
  %53 = load i64, ptr %7, align 8, !tbaa !11
  %54 = call i64 @RSTRING_LEN(i64 noundef %53) #29
  %55 = getelementptr i8, ptr %52, i64 %54
  %56 = call ptr @onigenc_get_right_adjust_char_head(ptr noundef %47, ptr noundef %48, ptr noundef %51, ptr noundef %55)
  store ptr %56, ptr %12, align 8, !tbaa !13
  br label %71

57:                                               ; preds = %41
  %58 = load ptr, ptr %11, align 8, !tbaa !20
  %59 = getelementptr inbounds nuw %struct.OnigEncodingTypeST, ptr %58, i32 0, i32 14
  %60 = load ptr, ptr %59, align 8, !tbaa !75
  %61 = load ptr, ptr %13, align 8, !tbaa !13
  %62 = load ptr, ptr %13, align 8, !tbaa !13
  %63 = load i64, ptr %8, align 8, !tbaa !11
  %64 = getelementptr i8, ptr %62, i64 %63
  %65 = load ptr, ptr %13, align 8, !tbaa !13
  %66 = load i64, ptr %7, align 8, !tbaa !11
  %67 = call i64 @RSTRING_LEN(i64 noundef %66) #29
  %68 = getelementptr i8, ptr %65, i64 %67
  %69 = load ptr, ptr %11, align 8, !tbaa !20
  %70 = call ptr %60(ptr noundef %61, ptr noundef %64, ptr noundef %68, ptr noundef %69)
  store ptr %70, ptr %12, align 8, !tbaa !13
  br label %71

71:                                               ; preds = %57, %46
  %72 = load ptr, ptr %12, align 8, !tbaa !13
  %73 = load ptr, ptr %13, align 8, !tbaa !13
  %74 = ptrtoint ptr %72 to i64
  %75 = ptrtoint ptr %73 to i64
  %76 = sub i64 %74, %75
  store i64 %76, ptr %5, align 8
  store i32 1, ptr %14, align 4
  br label %79

77:                                               ; preds = %36, %31, %28
  %78 = load i64, ptr %8, align 8, !tbaa !11
  store i64 %78, ptr %5, align 8
  store i32 1, ptr %14, align 4
  br label %79

79:                                               ; preds = %77, %71
  call void @llvm.lifetime.end.p0(i64 8, ptr %13) #28
  call void @llvm.lifetime.end.p0(i64 8, ptr %12) #28
  call void @llvm.lifetime.end.p0(i64 8, ptr %11) #28
  call void @llvm.lifetime.end.p0(i64 8, ptr %10) #28
  %80 = load i64, ptr %5, align 8
  ret i64 %80
}