; Function Attrs: nounwind sspstrong uwtable
define dso_local i64 @rb_reg_adjust_startpos(i64 noundef %0, i64 noundef %1, i64 noundef %2, i32 noundef %3) local_unnamed_addr #2 {
  %5 = tail call fastcc ptr @rb_reg_prepare_enc(i64 noundef %0, i64 noundef %1, i32 noundef 0)
  %.not = icmp eq i32 %3, 0
  br i1 %.not, label %6, label %10

6:                                                ; preds = %4
  %7 = inttoptr i64 %1 to ptr
  %8 = getelementptr inbounds nuw i8, ptr %7, i64 16
  %9 = load i64, ptr %8, align 8, !tbaa !35
  br label %10

10:                                               ; preds = %4, %6
  %.pn = phi i64 [ %9, %6 ], [ 0, %4 ]
  %.029 = sub i64 %.pn, %2
  %11 = icmp sgt i64 %2, 0
  br i1 %11, label %12, label %40

12:                                               ; preds = %10
  %13 = getelementptr inbounds nuw i8, ptr %5, i64 16
  %14 = load i32, ptr %13, align 8, !tbaa !74
  %.not31 = icmp eq i32 %14, 1
  br i1 %.not31, label %40, label %15

15:                                               ; preds = %12
  %16 = inttoptr i64 %1 to ptr
  %17 = getelementptr inbounds nuw i8, ptr %16, i64 16
  %18 = load i64, ptr %17, align 8, !tbaa !35
  %19 = icmp slt i64 %2, %18
  br i1 %19, label %20, label %40

20:                                               ; preds = %15
  %21 = load i64, ptr %16, align 8, !tbaa !34, !noalias !75
  %22 = and i64 %21, 8192
  %.not.i.i = icmp eq i64 %22, 0
  %23 = getelementptr inbounds nuw i8, ptr %16, i64 24
  br i1 %.not.i.i, label %RSTRING_PTR.exit, label %24

24:                                               ; preds = %20
  %.sroa.2.0.copyload.i = load ptr, ptr %23, align 8
  br label %RSTRING_PTR.exit

RSTRING_PTR.exit:                                 ; preds = %20, %24
  %.sroa.2.0.i = phi ptr [ %.sroa.2.0.copyload.i, %24 ], [ %23, %20 ]
  %25 = icmp sgt i64 %.029, 0
  br i1 %25, label %26, label %30

26:                                               ; preds = %RSTRING_PTR.exit
  %27 = getelementptr i8, ptr %.sroa.2.0.i, i64 %2
  %28 = getelementptr i8, ptr %.sroa.2.0.i, i64 %18
  %29 = tail call ptr @onigenc_get_right_adjust_char_head(ptr noundef nonnull %5, ptr noundef %.sroa.2.0.i, ptr noundef %27, ptr noundef %28) #29
  br label %36

30:                                               ; preds = %RSTRING_PTR.exit
  %31 = getelementptr inbounds nuw i8, ptr %5, i64 104
  %32 = load ptr, ptr %31, align 8, !tbaa !78
  %33 = getelementptr i8, ptr %.sroa.2.0.i, i64 %2
  %34 = getelementptr i8, ptr %.sroa.2.0.i, i64 %18
  %35 = tail call ptr %32(ptr noundef %.sroa.2.0.i, ptr noundef %33, ptr noundef %34, ptr noundef nonnull %5) #29
  br label %36

36:                                               ; preds = %30, %26
  %.028 = phi ptr [ %29, %26 ], [ %35, %30 ]
  %37 = ptrtoint ptr %.028 to i64
  %38 = ptrtoint ptr %.sroa.2.0.i to i64
  %39 = sub i64 %37, %38
  br label %40

40:                                               ; preds = %10, %12, %15, %36
  %.0 = phi i64 [ %39, %36 ], [ %2, %15 ], [ %2, %12 ], [ %2, %10 ]
  ret i64 %.0
}